target datalayout = "e-m:e-p270:32:32-p271:32:32-p272:64:64-i64:64-i128:128-f80:128-n8:16:32:64-S128"
target triple = "x86_64-pc-linux-gnu"

@stderr = external global ptr, align 8
@.str.15 = private unnamed_addr constant [58 x i8] c"integer overflow when trying to allocate %zu * %zu bytes\0A\00", align 1
@.str.16 = private unnamed_addr constant [49 x i8] c"out of memory when trying to allocate %zu bytes\0A\00", align 1

; Function Attrs: inlinehint nounwind uwtable
define internal ptr @gv_calloc(i64 noundef %0, i64 noundef %1) #2 {
  %3 = alloca i64, align 8
  %4 = alloca i64, align 8
  %5 = alloca ptr, align 8
  store i64 %0, ptr %3, align 8, !tbaa !17
  store i64 %1, ptr %4, align 8, !tbaa !17
  %6 = load i64, ptr %3, align 8, !tbaa !17
  %7 = icmp ugt i64 %6, 0
  br i1 %7, label %8, label %18

8:                                                ; preds = %2
  %9 = load i64, ptr %3, align 8, !tbaa !17
  %10 = udiv i64 -1, %9
  %11 = load i64, ptr %4, align 8, !tbaa !17
  %12 = icmp ult i64 %10, %11
  br i1 %12, label %13, label %18

13:                                               ; preds = %8
  %14 = load ptr, ptr @stderr, align 8, !tbaa !19
  %15 = load i64, ptr %3, align 8, !tbaa !17
  %16 = load i64, ptr %4, align 8, !tbaa !17
  %17 = call i32 (ptr, ptr, ...) @fprintf(ptr noundef %14, ptr noundef @.str.15, i64 noundef %15, i64 noundef %16) #11
  call void @graphviz_exit(i32 noundef 1) #12
  unreachable

18:                                               ; preds = %8, %2
  call void @llvm.lifetime.start.p0(i64 8, ptr %5) #11
  %19 = load i64, ptr %3, align 8, !tbaa !17
  %20 = load i64, ptr %4, align 8, !tbaa !17
  %21 = call noalias ptr @calloc(i64 noundef %19, i64 noundef %20) #13
  store ptr %21, ptr %5, align 8, !tbaa !21
  %22 = load i64, ptr %3, align 8, !tbaa !17
  %23 = icmp ugt i64 %22, 0
  br i1 %23, label %24, label %36

24:                                               ; preds = %18
  %25 = load i64, ptr %4, align 8, !tbaa !17
  %26 = icmp ugt i64 %25, 0
  br i1 %26, label %27, label %36

27:                                               ; preds = %24
  %28 = load ptr, ptr %5, align 8, !tbaa !21
  %29 = icmp eq ptr %28, null
  br i1 %29, label %30, label %36

30:                                               ; preds = %27
  %31 = load ptr, ptr @stderr, align 8, !tbaa !19
  %32 = load i64, ptr %3, align 8, !tbaa !17
  %33 = load i64, ptr %4, align 8, !tbaa !17
  %34 = mul i64 %32, %33
  %35 = call i32 (ptr, ptr, ...) @fprintf(ptr noundef %31, ptr noundef @.str.16, i64 noundef %34) #11
  call void @graphviz_exit(i32 noundef 1) #12
  unreachable

36:                                               ; preds = %27, %24, %18
  %37 = load ptr, ptr %5, align 8, !tbaa !21
  call void @llvm.lifetime.end.p0(i64 8, ptr %5) #11
  ret ptr %37
}

; Function Attrs: nounwind uwtable
define ptr @new_array(i32 noundef %0, i32 noundef %1, double noundef %2) #0 {
  %4 = alloca i32, align 4
  %5 = alloca i32, align 4
  %6 = alloca double, align 8
  %7 = alloca i32, align 4
  %8 = alloca i32, align 4
  %9 = alloca ptr, align 8
  %10 = alloca ptr, align 8
  store i32 %0, ptr %4, align 4, !tbaa !3
  store i32 %1, ptr %5, align 4, !tbaa !3
  store double %2, ptr %6, align 8, !tbaa !7
  call void @llvm.lifetime.start.p0(i64 4, ptr %7) #11
  call void @llvm.lifetime.start.p0(i64 4, ptr %8) #11
  call void @llvm.lifetime.start.p0(i64 8, ptr %9) #11
  %11 = load i32, ptr %4, align 4, !tbaa !3
  %12 = sext i32 %11 to i64
  %13 = call ptr @gv_calloc(i64 noundef %12, i64 noundef 8)
  store ptr %13, ptr %9, align 8, !tbaa !9
  call void @llvm.lifetime.start.p0(i64 8, ptr %10) #11
  %14 = load i32, ptr %4, align 4, !tbaa !3
  %15 = load i32, ptr %5, align 4, !tbaa !3
  %16 = mul nsw i32 %14, %15
  %17 = sext i32 %16 to i64
  %18 = call ptr @gv_calloc(i64 noundef %17, i64 noundef 8)
  store ptr %18, ptr %10, align 8, !tbaa !12
  store i32 0, ptr %7, align 4, !tbaa !3
  br label %19

19:                                               ; preds = %51, %3
  %20 = load i32, ptr %7, align 4, !tbaa !3
  %21 = load i32, ptr %4, align 4, !tbaa !3
  %22 = icmp slt i32 %20, %21
  br i1 %22, label %23, label %54

23:                                               ; preds = %19
  %24 = load ptr, ptr %10, align 8, !tbaa !12
  %25 = load ptr, ptr %9, align 8, !tbaa !9
  %26 = load i32, ptr %7, align 4, !tbaa !3
  %27 = sext i32 %26 to i64
  %28 = getelementptr inbounds ptr, ptr %25, i64 %27
  store ptr %24, ptr %28, align 8, !tbaa !12
  %29 = load i32, ptr %5, align 4, !tbaa !3
  %30 = load ptr, ptr %10, align 8, !tbaa !12
  %31 = sext i32 %29 to i64
  %32 = getelementptr inbounds double, ptr %30, i64 %31
  store ptr %32, ptr %10, align 8, !tbaa !12
  store i32 0, ptr %8, align 4, !tbaa !3
  br label %33

33:                                               ; preds = %47, %23
  %34 = load i32, ptr %8, align 4, !tbaa !3
  %35 = load i32, ptr %5, align 4, !tbaa !3
  %36 = icmp slt i32 %34, %35
  br i1 %36, label %37, label %50

37:                                               ; preds = %33
  %38 = load double, ptr %6, align 8, !tbaa !7
  %39 = load ptr, ptr %9, align 8, !tbaa !9
  %40 = load i32, ptr %7, align 4, !tbaa !3
  %41 = sext i32 %40 to i64
  %42 = getelementptr inbounds ptr, ptr %39, i64 %41
  %43 = load ptr, ptr %42, align 8, !tbaa !12
  %44 = load i32, ptr %8, align 4, !tbaa !3
  %45 = sext i32 %44 to i64
  %46 = getelementptr inbounds double, ptr %43, i64 %45
  store double %38, ptr %46, align 8, !tbaa !7
  br label %47

47:                                               ; preds = %37
  %48 = load i32, ptr %8, align 4, !tbaa !3
  %49 = add nsw i32 %48, 1
  store i32 %49, ptr %8, align 4, !tbaa !3
  br label %33, !llvm.loop !14

50:                                               ; preds = %33
  br label %51

51:                                               ; preds = %50
  %52 = load i32, ptr %7, align 4, !tbaa !3
  %53 = add nsw i32 %52, 1
  store i32 %53, ptr %7, align 4, !tbaa !3
  br label %19, !llvm.loop !16

54:                                               ; preds = %19
  %55 = load ptr, ptr %9, align 8, !tbaa !9
  call void @llvm.lifetime.end.p0(i64 8, ptr %10) #11
  call void @llvm.lifetime.end.p0(i64 8, ptr %9) #11
  call void @llvm.lifetime.end.p0(i64 4, ptr %8) #11
  call void @llvm.lifetime.end.p0(i64 4, ptr %7) #11
  ret ptr %55
}