; Function Attrs: nofree nounwind uwtable
define noalias noundef ptr @new_array(i32 noundef %0, i32 noundef %1, double noundef %2) local_unnamed_addr #0 {
  %4 = sext i32 %0 to i64
  %mul.ov.i = icmp slt i32 %0, 0
  br i1 %mul.ov.i, label %5, label %8

5:                                                ; preds = %3
  %6 = load ptr, ptr @stderr, align 8, !tbaa !3
  %7 = tail call i32 (ptr, ptr, ...) @fprintf(ptr noundef %6, ptr noundef nonnull @.str.15, i64 noundef range(i64 -2147483648, 4294836226) %4, i64 noundef 8) #18
  tail call fastcc void @graphviz_exit() #19
  unreachable

8:                                                ; preds = %3
  %9 = icmp ne i32 %0, 0
  %10 = tail call noalias ptr @calloc(i64 noundef range(i64 -2147483648, 4294836226) %4, i64 noundef 8) #20
  %11 = icmp eq ptr %10, null
  %or.cond3.i = and i1 %9, %11
  br i1 %or.cond3.i, label %12, label %gv_calloc.exit

12:                                               ; preds = %8
  %13 = load ptr, ptr @stderr, align 8, !tbaa !3
  %14 = shl nuw nsw i64 %4, 3
  %15 = tail call i32 (ptr, ptr, ...) @fprintf(ptr noundef %13, ptr noundef nonnull @.str.16, i64 noundef %14) #18
  tail call fastcc void @graphviz_exit() #19
  unreachable

gv_calloc.exit:                                   ; preds = %8
  %16 = mul nsw i32 %1, %0
  %17 = sext i32 %16 to i64
  %mul.ov.i20 = icmp slt i32 %16, 0
  br i1 %mul.ov.i20, label %18, label %21

18:                                               ; preds = %gv_calloc.exit
  %19 = load ptr, ptr @stderr, align 8, !tbaa !3
  %20 = tail call i32 (ptr, ptr, ...) @fprintf(ptr noundef %19, ptr noundef nonnull @.str.15, i64 noundef range(i64 -2147483648, 4294836226) %17, i64 noundef 8) #18
  tail call fastcc void @graphviz_exit() #19
  unreachable

21:                                               ; preds = %gv_calloc.exit
  %22 = icmp ne i32 %16, 0
  %23 = tail call noalias ptr @calloc(i64 noundef range(i64 -2147483648, 4294836226) %17, i64 noundef 8) #20
  %24 = icmp eq ptr %23, null
  %or.cond3.i21 = and i1 %22, %24
  br i1 %or.cond3.i21, label %31, label %gv_calloc.exit22.preheader

gv_calloc.exit22.preheader:                       ; preds = %21
  %.not = icmp eq i32 %0, 0
  br i1 %.not, label %gv_calloc.exit22._crit_edge, label %.lr.ph26

.lr.ph26:                                         ; preds = %gv_calloc.exit22.preheader
  %25 = sext i32 %1 to i64
  %26 = icmp sgt i32 %1, 0
  %wide.trip.count38 = zext nneg i32 %0 to i64
  br i1 %26, label %.lr.ph.us.preheader, label %gv_calloc.exit22

.lr.ph.us.preheader:                              ; preds = %.lr.ph26
  %wide.trip.count33 = zext nneg i32 %1 to i64
  br label %.lr.ph.us

.lr.ph.us:                                        ; preds = %.lr.ph.us.preheader, %._crit_edge.us
  %indvars.iv35 = phi i64 [ 0, %.lr.ph.us.preheader ], [ %indvars.iv.next36, %._crit_edge.us ]
  %.025.us = phi ptr [ %23, %.lr.ph.us.preheader ], [ %30, %._crit_edge.us ]
  %27 = getelementptr inbounds nuw ptr, ptr %10, i64 %indvars.iv35
  store ptr %.025.us, ptr %27, align 8, !tbaa !8
  br label %28

28:                                               ; preds = %.lr.ph.us, %28
  %indvars.iv30 = phi i64 [ 0, %.lr.ph.us ], [ %indvars.iv.next31, %28 ]
  %29 = getelementptr inbounds nuw double, ptr %.025.us, i64 %indvars.iv30
  store double %2, ptr %29, align 8, !tbaa !10
  %indvars.iv.next31 = add nuw nsw i64 %indvars.iv30, 1
  %exitcond34.not = icmp eq i64 %indvars.iv.next31, %wide.trip.count33
  br i1 %exitcond34.not, label %._crit_edge.us, label %28, !llvm.loop !12

._crit_edge.us:                                   ; preds = %28
  %30 = getelementptr inbounds nuw double, ptr %.025.us, i64 %25
  %indvars.iv.next36 = add nuw nsw i64 %indvars.iv35, 1
  %exitcond39.not = icmp eq i64 %indvars.iv.next36, %wide.trip.count38
  br i1 %exitcond39.not, label %gv_calloc.exit22._crit_edge, label %.lr.ph.us, !llvm.loop !14

31:                                               ; preds = %21
  %32 = load ptr, ptr @stderr, align 8, !tbaa !3
  %33 = shl nuw nsw i64 %17, 3
  %34 = tail call i32 (ptr, ptr, ...) @fprintf(ptr noundef %32, ptr noundef nonnull @.str.16, i64 noundef %33) #18
  tail call fastcc void @graphviz_exit() #19
  unreachable

gv_calloc.exit22:                                 ; preds = %.lr.ph26, %gv_calloc.exit22
  %indvars.iv = phi i64 [ %indvars.iv.next, %gv_calloc.exit22 ], [ 0, %.lr.ph26 ]
  %.025 = phi ptr [ %36, %gv_calloc.exit22 ], [ %23, %.lr.ph26 ]
  %35 = getelementptr inbounds nuw ptr, ptr %10, i64 %indvars.iv
  store ptr %.025, ptr %35, align 8, !tbaa !8
  %36 = getelementptr inbounds double, ptr %.025, i64 %25
  %indvars.iv.next = add nuw nsw i64 %indvars.iv, 1
  %exitcond.not = icmp eq i64 %indvars.iv.next, %wide.trip.count38
  br i1 %exitcond.not, label %gv_calloc.exit22._crit_edge, label %gv_calloc.exit22, !llvm.loop !14

gv_calloc.exit22._crit_edge:                      ; preds = %gv_calloc.exit22, %._crit_edge.us, %gv_calloc.exit22.preheader
  ret ptr %10
}